; Function Attrs: mustprogress uwtable
define void @_ZN13sentencepiece17SentencePieceTextC2EPN6google8protobuf5ArenaE(ptr noundef nonnull align 8 dereferenceable(88) initializes((0, 16)) %0, ptr noundef %1) unnamed_addr #3 align 2 personality ptr @__gxx_personality_v0 {
  %3 = getelementptr inbounds nuw i8, ptr %0, i64 8
  store ptr %1, ptr %3, align 8, !tbaa !3
  store ptr getelementptr inbounds nuw inrange(-16, 112) (i8, ptr @_ZTVN13sentencepiece17SentencePieceTextE, i64 16), ptr %0, align 8, !tbaa !8
  %4 = getelementptr inbounds nuw i8, ptr %0, i64 16
  tail call void @_ZN6google8protobuf8internal12ExtensionSetC1EPNS0_5ArenaE(ptr noundef nonnull align 8 dereferenceable(24) %4, ptr noundef %1)
  %.ptr = getelementptr inbounds nuw i8, ptr %0, i64 40
  store i32 0, ptr %.ptr, align 8, !tbaa !29
  %5 = getelementptr inbounds nuw i8, ptr %0, i64 44
  store i32 0, ptr %5, align 4, !tbaa !30
  %6 = getelementptr inbounds nuw i8, ptr %0, i64 48
  store ptr %1, ptr %6, align 8, !tbaa !70
  %7 = getelementptr inbounds nuw i8, ptr %0, i64 56
  tail call void @llvm.memset.p0.i64(ptr noundef nonnull align 8 dereferenceable(16) %7, i8 0, i64 16, i1 false)
  %8 = load atomic i32, ptr @scc_info_SentencePieceText_sentencepiece_2eproto acquire, align 8
  %.not.i.i = icmp eq i32 %8, 0
  br i1 %.not.i.i, label %10, label %9, !prof !10

9:                                                ; preds = %2
  invoke void @_ZN6google8protobuf8internal11InitSCCImplEPNS1_11SCCInfoBaseE(ptr noundef nonnull @scc_info_SentencePieceText_sentencepiece_2eproto)
          to label %10 unwind label %13

10:                                               ; preds = %2, %9
  %11 = getelementptr inbounds nuw i8, ptr %0, i64 72
  store ptr @_ZN6google8protobuf8internal26fixed_address_empty_stringE, ptr %11, align 8, !tbaa !11
  %12 = getelementptr inbounds nuw i8, ptr %0, i64 80
  store float 0.000000e+00, ptr %12, align 8, !tbaa !13
  ret void

13:                                               ; preds = %9
  %14 = landingpad { ptr, i32 }
          cleanup
  tail call void @_ZN6google8protobuf16RepeatedPtrFieldIN13sentencepiece31SentencePieceText_SentencePieceEED2Ev(ptr noundef nonnull align 8 dereferenceable(24) %6) #19
  tail call void @_ZN6google8protobuf8internal12ExtensionSetD1Ev(ptr noundef nonnull align 8 dereferenceable(24) %4) #19
  resume { ptr, i32 } %14
}